target datalayout = "e-m:e-p270:32:32-p271:32:32-p272:64:64-i64:64-i128:128-f80:128-n8:16:32:64-S128"
target triple = "x86_64-pc-linux-gnu"

%struct.prov_aes_hmac_sha_ctx_st = type { %struct.prov_cipher_ctx_st, %struct.aes_key_st, i64, %union.anon.0, ptr, i32, i32, i64, i64, i64 }
%struct.prov_cipher_ctx_st = type { [16 x i8], [16 x i8], [16 x i8], ptr, %union.anon, i32, i64, i64, i64, i64, i32, i8, i32, ptr, i32, i64, i32, i64, i32, ptr, ptr, ptr }
%union.anon = type { ptr }
%struct.aes_key_st = type { [60 x i32], i32 }
%union.anon.0 = type { i32, [12 x i8] }
%struct.prov_cipher_hw_aes_hmac_sha_ctx_st = type { %struct.prov_cipher_hw_st, ptr, ptr, ptr, ptr, ptr }
%struct.prov_cipher_hw_st = type { ptr, ptr, ptr }

@.str = private unnamed_addr constant [71 x i8] c"../openssl/providers/implementations/ciphers/cipher_aes_cbc_hmac_sha.c\00", align 1
@.str.1 = private unnamed_addr constant [19 x i8] c"tls1multi_maxbufsz\00", align 1
@__func__.aes_get_ctx_params = private unnamed_addr constant [19 x i8] c"aes_get_ctx_params\00", align 1
@.str.2 = private unnamed_addr constant [21 x i8] c"tls1multi_interleave\00", align 1
@.str.3 = private unnamed_addr constant [21 x i8] c"tls1multi_aadpacklen\00", align 1
@.str.4 = private unnamed_addr constant [17 x i8] c"tls1multi_enclen\00", align 1
@.str.5 = private unnamed_addr constant [10 x i8] c"tlsaadpad\00", align 1
@.str.6 = private unnamed_addr constant [7 x i8] c"keylen\00", align 1
@.str.7 = private unnamed_addr constant [6 x i8] c"ivlen\00", align 1
@.str.8 = private unnamed_addr constant [3 x i8] c"iv\00", align 1
@.str.9 = private unnamed_addr constant [11 x i8] c"updated-iv\00", align 1

; Function Attrs: nounwind uwtable
define internal i32 @aes_get_ctx_params(ptr noundef %0, ptr noundef %1) #0 {
  %3 = alloca i32, align 4
  %4 = alloca ptr, align 8
  %5 = alloca ptr, align 8
  %6 = alloca ptr, align 8
  %7 = alloca ptr, align 8
  %8 = alloca ptr, align 8
  %9 = alloca i64, align 8
  %10 = alloca i32, align 4
  store ptr %0, ptr %4, align 8, !tbaa !3
  store ptr %1, ptr %5, align 8, !tbaa !13
  call void @llvm.lifetime.start.p0(i64 8, ptr %6) #5
  %11 = load ptr, ptr %4, align 8, !tbaa !3
  store ptr %11, ptr %6, align 8, !tbaa !15
  call void @llvm.lifetime.start.p0(i64 8, ptr %7) #5
  %12 = load ptr, ptr %5, align 8, !tbaa !13
  %13 = call ptr @OSSL_PARAM_locate(ptr noundef %12, ptr noundef @.str.1)
  store ptr %13, ptr %7, align 8, !tbaa !13
  %14 = load ptr, ptr %7, align 8, !tbaa !13
  %15 = icmp ne ptr %14, null
  br i1 %15, label %16, label %35

16:                                               ; preds = %2
  call void @llvm.lifetime.start.p0(i64 8, ptr %8) #5
  %17 = load ptr, ptr %6, align 8, !tbaa !15
  %18 = getelementptr inbounds nuw %struct.prov_aes_hmac_sha_ctx_st, ptr %17, i32 0, i32 4
  %19 = load ptr, ptr %18, align 8, !tbaa !17
  store ptr %19, ptr %8, align 8, !tbaa !25
  call void @llvm.lifetime.start.p0(i64 8, ptr %9) #5
  %20 = load ptr, ptr %8, align 8, !tbaa !25
  %21 = getelementptr inbounds nuw %struct.prov_cipher_hw_aes_hmac_sha_ctx_st, ptr %20, i32 0, i32 3
  %22 = load ptr, ptr %21, align 8, !tbaa !26
  %23 = load ptr, ptr %6, align 8, !tbaa !15
  %24 = call i32 %22(ptr noundef %23)
  %25 = sext i32 %24 to i64
  store i64 %25, ptr %9, align 8, !tbaa !11
  %26 = load ptr, ptr %7, align 8, !tbaa !13
  %27 = load i64, ptr %9, align 8, !tbaa !11
  %28 = call i32 @OSSL_PARAM_set_size_t(ptr noundef %26, i64 noundef %27)
  %29 = icmp ne i32 %28, 0
  br i1 %29, label %31, label %30

30:                                               ; preds = %16
  call void @ERR_new()
  call void @ERR_set_debug(ptr noundef @.str, i32 noundef 233, ptr noundef @__func__.aes_get_ctx_params)
  call void (i32, i32, ptr, ...) @ERR_set_error(i32 noundef 57, i32 noundef 104, ptr noundef null)
  store i32 0, ptr %3, align 4
  store i32 1, ptr %10, align 4
  br label %32

31:                                               ; preds = %16
  store i32 0, ptr %10, align 4
  br label %32

32:                                               ; preds = %31, %30
  call void @llvm.lifetime.end.p0(i64 8, ptr %9) #5
  call void @llvm.lifetime.end.p0(i64 8, ptr %8) #5
  %33 = load i32, ptr %10, align 4
  switch i32 %33, label %174 [
    i32 0, label %34
  ]

34:                                               ; preds = %32
  br label %35

35:                                               ; preds = %34, %2
  %36 = load ptr, ptr %5, align 8, !tbaa !13
  %37 = call ptr @OSSL_PARAM_locate(ptr noundef %36, ptr noundef @.str.2)
  store ptr %37, ptr %7, align 8, !tbaa !13
  %38 = load ptr, ptr %7, align 8, !tbaa !13
  %39 = icmp ne ptr %38, null
  br i1 %39, label %40, label %48

40:                                               ; preds = %35
  %41 = load ptr, ptr %7, align 8, !tbaa !13
  %42 = load ptr, ptr %6, align 8, !tbaa !15
  %43 = getelementptr inbounds nuw %struct.prov_aes_hmac_sha_ctx_st, ptr %42, i32 0, i32 5
  %44 = load i32, ptr %43, align 8, !tbaa !29
  %45 = call i32 @OSSL_PARAM_set_uint(ptr noundef %41, i32 noundef %44)
  %46 = icmp ne i32 %45, 0
  br i1 %46, label %48, label %47

47:                                               ; preds = %40
  call void @ERR_new()
  call void @ERR_set_debug(ptr noundef @.str, i32 noundef 240, ptr noundef @__func__.aes_get_ctx_params)
  call void (i32, i32, ptr, ...) @ERR_set_error(i32 noundef 57, i32 noundef 104, ptr noundef null)
  store i32 0, ptr %3, align 4
  store i32 1, ptr %10, align 4
  br label %174

48:                                               ; preds = %40, %35
  %49 = load ptr, ptr %5, align 8, !tbaa !13
  %50 = call ptr @OSSL_PARAM_locate(ptr noundef %49, ptr noundef @.str.3)
  store ptr %50, ptr %7, align 8, !tbaa !13
  %51 = load ptr, ptr %7, align 8, !tbaa !13
  %52 = icmp ne ptr %51, null
  br i1 %52, label %53, label %61

53:                                               ; preds = %48
  %54 = load ptr, ptr %7, align 8, !tbaa !13
  %55 = load ptr, ptr %6, align 8, !tbaa !15
  %56 = getelementptr inbounds nuw %struct.prov_aes_hmac_sha_ctx_st, ptr %55, i32 0, i32 6
  %57 = load i32, ptr %56, align 4, !tbaa !30
  %58 = call i32 @OSSL_PARAM_set_uint(ptr noundef %54, i32 noundef %57)
  %59 = icmp ne i32 %58, 0
  br i1 %59, label %61, label %60

60:                                               ; preds = %53
  call void @ERR_new()
  call void @ERR_set_debug(ptr noundef @.str, i32 noundef 246, ptr noundef @__func__.aes_get_ctx_params)
  call void (i32, i32, ptr, ...) @ERR_set_error(i32 noundef 57, i32 noundef 104, ptr noundef null)
  store i32 0, ptr %3, align 4
  store i32 1, ptr %10, align 4
  br label %174

61:                                               ; preds = %53, %48
  %62 = load ptr, ptr %5, align 8, !tbaa !13
  %63 = call ptr @OSSL_PARAM_locate(ptr noundef %62, ptr noundef @.str.4)
  store ptr %63, ptr %7, align 8, !tbaa !13
  %64 = load ptr, ptr %7, align 8, !tbaa !13
  %65 = icmp ne ptr %64, null
  br i1 %65, label %66, label %74

66:                                               ; preds = %61
  %67 = load ptr, ptr %7, align 8, !tbaa !13
  %68 = load ptr, ptr %6, align 8, !tbaa !15
  %69 = getelementptr inbounds nuw %struct.prov_aes_hmac_sha_ctx_st, ptr %68, i32 0, i32 8
  %70 = load i64, ptr %69, align 8, !tbaa !31
  %71 = call i32 @OSSL_PARAM_set_size_t(ptr noundef %67, i64 noundef %70)
  %72 = icmp ne i32 %71, 0
  br i1 %72, label %74, label %73

73:                                               ; preds = %66
  call void @ERR_new()
  call void @ERR_set_debug(ptr noundef @.str, i32 noundef 252, ptr noundef @__func__.aes_get_ctx_params)
  call void (i32, i32, ptr, ...) @ERR_set_error(i32 noundef 57, i32 noundef 104, ptr noundef null)
  store i32 0, ptr %3, align 4
  store i32 1, ptr %10, align 4
  br label %174

74:                                               ; preds = %66, %61
  %75 = load ptr, ptr %5, align 8, !tbaa !13
  %76 = call ptr @OSSL_PARAM_locate(ptr noundef %75, ptr noundef @.str.5)
  store ptr %76, ptr %7, align 8, !tbaa !13
  %77 = load ptr, ptr %7, align 8, !tbaa !13
  %78 = icmp ne ptr %77, null
  br i1 %78, label %79, label %87

79:                                               ; preds = %74
  %80 = load ptr, ptr %7, align 8, !tbaa !13
  %81 = load ptr, ptr %6, align 8, !tbaa !15
  %82 = getelementptr inbounds nuw %struct.prov_aes_hmac_sha_ctx_st, ptr %81, i32 0, i32 9
  %83 = load i64, ptr %82, align 8, !tbaa !32
  %84 = call i32 @OSSL_PARAM_set_size_t(ptr noundef %80, i64 noundef %83)
  %85 = icmp ne i32 %84, 0
  br i1 %85, label %87, label %86

86:                                               ; preds = %79
  call void @ERR_new()
  call void @ERR_set_debug(ptr noundef @.str, i32 noundef 259, ptr noundef @__func__.aes_get_ctx_params)
  call void (i32, i32, ptr, ...) @ERR_set_error(i32 noundef 57, i32 noundef 104, ptr noundef null)
  store i32 0, ptr %3, align 4
  store i32 1, ptr %10, align 4
  br label %174

87:                                               ; preds = %79, %74
  %88 = load ptr, ptr %5, align 8, !tbaa !13
  %89 = call ptr @OSSL_PARAM_locate(ptr noundef %88, ptr noundef @.str.6)
  store ptr %89, ptr %7, align 8, !tbaa !13
  %90 = load ptr, ptr %7, align 8, !tbaa !13
  %91 = icmp ne ptr %90, null
  br i1 %91, label %92, label %101

92:                                               ; preds = %87
  %93 = load ptr, ptr %7, align 8, !tbaa !13
  %94 = load ptr, ptr %6, align 8, !tbaa !15
  %95 = getelementptr inbounds nuw %struct.prov_aes_hmac_sha_ctx_st, ptr %94, i32 0, i32 0
  %96 = getelementptr inbounds nuw %struct.prov_cipher_ctx_st, ptr %95, i32 0, i32 6
  %97 = load i64, ptr %96, align 8, !tbaa !33
  %98 = call i32 @OSSL_PARAM_set_size_t(ptr noundef %93, i64 noundef %97)
  %99 = icmp ne i32 %98, 0
  br i1 %99, label %101, label %100

100:                                              ; preds = %92
  call void @ERR_new()
  call void @ERR_set_debug(ptr noundef @.str, i32 noundef 264, ptr noundef @__func__.aes_get_ctx_params)
  call void (i32, i32, ptr, ...) @ERR_set_error(i32 noundef 57, i32 noundef 104, ptr noundef null)
  store i32 0, ptr %3, align 4
  store i32 1, ptr %10, align 4
  br label %174

101:                                              ; preds = %92, %87
  %102 = load ptr, ptr %5, align 8, !tbaa !13
  %103 = call ptr @OSSL_PARAM_locate(ptr noundef %102, ptr noundef @.str.7)
  store ptr %103, ptr %7, align 8, !tbaa !13
  %104 = load ptr, ptr %7, align 8, !tbaa !13
  %105 = icmp ne ptr %104, null
  br i1 %105, label %106, label %115

106:                                              ; preds = %101
  %107 = load ptr, ptr %7, align 8, !tbaa !13
  %108 = load ptr, ptr %6, align 8, !tbaa !15
  %109 = getelementptr inbounds nuw %struct.prov_aes_hmac_sha_ctx_st, ptr %108, i32 0, i32 0
  %110 = getelementptr inbounds nuw %struct.prov_cipher_ctx_st, ptr %109, i32 0, i32 7
  %111 = load i64, ptr %110, align 8, !tbaa !34
  %112 = call i32 @OSSL_PARAM_set_size_t(ptr noundef %107, i64 noundef %111)
  %113 = icmp ne i32 %112, 0
  br i1 %113, label %115, label %114

114:                                              ; preds = %106
  call void @ERR_new()
  call void @ERR_set_debug(ptr noundef @.str, i32 noundef 269, ptr noundef @__func__.aes_get_ctx_params)
  call void (i32, i32, ptr, ...) @ERR_set_error(i32 noundef 57, i32 noundef 104, ptr noundef null)
  store i32 0, ptr %3, align 4
  store i32 1, ptr %10, align 4
  br label %174

115:                                              ; preds = %106, %101
  %116 = load ptr, ptr %5, align 8, !tbaa !13
  %117 = call ptr @OSSL_PARAM_locate(ptr noundef %116, ptr noundef @.str.8)
  store ptr %117, ptr %7, align 8, !tbaa !13
  %118 = load ptr, ptr %7, align 8, !tbaa !13
  %119 = icmp ne ptr %118, null
  br i1 %119, label %120, label %144

120:                                              ; preds = %115
  %121 = load ptr, ptr %7, align 8, !tbaa !13
  %122 = load ptr, ptr %6, align 8, !tbaa !15
  %123 = getelementptr inbounds nuw %struct.prov_aes_hmac_sha_ctx_st, ptr %122, i32 0, i32 0
  %124 = getelementptr inbounds nuw %struct.prov_cipher_ctx_st, ptr %123, i32 0, i32 0
  %125 = getelementptr inbounds [16 x i8], ptr %124, i64 0, i64 0
  %126 = load ptr, ptr %6, align 8, !tbaa !15
  %127 = getelementptr inbounds nuw %struct.prov_aes_hmac_sha_ctx_st, ptr %126, i32 0, i32 0
  %128 = getelementptr inbounds nuw %struct.prov_cipher_ctx_st, ptr %127, i32 0, i32 7
  %129 = load i64, ptr %128, align 8, !tbaa !34
  %130 = call i32 @OSSL_PARAM_set_octet_string(ptr noundef %121, ptr noundef %125, i64 noundef %129)
  %131 = icmp ne i32 %130, 0
  br i1 %131, label %144, label %132

132:                                              ; preds = %120
  %133 = load ptr, ptr %7, align 8, !tbaa !13
  %134 = load ptr, ptr %6, align 8, !tbaa !15
  %135 = getelementptr inbounds nuw %struct.prov_aes_hmac_sha_ctx_st, ptr %134, i32 0, i32 0
  %136 = getelementptr inbounds nuw %struct.prov_cipher_ctx_st, ptr %135, i32 0, i32 0
  %137 = load ptr, ptr %6, align 8, !tbaa !15
  %138 = getelementptr inbounds nuw %struct.prov_aes_hmac_sha_ctx_st, ptr %137, i32 0, i32 0
  %139 = getelementptr inbounds nuw %struct.prov_cipher_ctx_st, ptr %138, i32 0, i32 7
  %140 = load i64, ptr %139, align 8, !tbaa !34
  %141 = call i32 @OSSL_PARAM_set_octet_ptr(ptr noundef %133, ptr noundef %136, i64 noundef %140)
  %142 = icmp ne i32 %141, 0
  br i1 %142, label %144, label %143

143:                                              ; preds = %132
  call void @ERR_new()
  call void @ERR_set_debug(ptr noundef @.str, i32 noundef 276, ptr noundef @__func__.aes_get_ctx_params)
  call void (i32, i32, ptr, ...) @ERR_set_error(i32 noundef 57, i32 noundef 104, ptr noundef null)
  store i32 0, ptr %3, align 4
  store i32 1, ptr %10, align 4
  br label %174

144:                                              ; preds = %132, %120, %115
  %145 = load ptr, ptr %5, align 8, !tbaa !13
  %146 = call ptr @OSSL_PARAM_locate(ptr noundef %145, ptr noundef @.str.9)
  store ptr %146, ptr %7, align 8, !tbaa !13
  %147 = load ptr, ptr %7, align 8, !tbaa !13
  %148 = icmp ne ptr %147, null
  br i1 %148, label %149, label %173

149:                                              ; preds = %144
  %150 = load ptr, ptr %7, align 8, !tbaa !13
  %151 = load ptr, ptr %6, align 8, !tbaa !15
  %152 = getelementptr inbounds nuw %struct.prov_aes_hmac_sha_ctx_st, ptr %151, i32 0, i32 0
  %153 = getelementptr inbounds nuw %struct.prov_cipher_ctx_st, ptr %152, i32 0, i32 2
  %154 = getelementptr inbounds [16 x i8], ptr %153, i64 0, i64 0
  %155 = load ptr, ptr %6, align 8, !tbaa !15
  %156 = getelementptr inbounds nuw %struct.prov_aes_hmac_sha_ctx_st, ptr %155, i32 0, i32 0
  %157 = getelementptr inbounds nuw %struct.prov_cipher_ctx_st, ptr %156, i32 0, i32 7
  %158 = load i64, ptr %157, align 8, !tbaa !34
  %159 = call i32 @OSSL_PARAM_set_octet_string(ptr noundef %150, ptr noundef %154, i64 noundef %158)
  %160 = icmp ne i32 %159, 0
  br i1 %160, label %173, label %161

161:                                              ; preds = %149
  %162 = load ptr, ptr %7, align 8, !tbaa !13
  %163 = load ptr, ptr %6, align 8, !tbaa !15
  %164 = getelementptr inbounds nuw %struct.prov_aes_hmac_sha_ctx_st, ptr %163, i32 0, i32 0
  %165 = getelementptr inbounds nuw %struct.prov_cipher_ctx_st, ptr %164, i32 0, i32 2
  %166 = load ptr, ptr %6, align 8, !tbaa !15
  %167 = getelementptr inbounds nuw %struct.prov_aes_hmac_sha_ctx_st, ptr %166, i32 0, i32 0
  %168 = getelementptr inbounds nuw %struct.prov_cipher_ctx_st, ptr %167, i32 0, i32 7
  %169 = load i64, ptr %168, align 8, !tbaa !34
  %170 = call i32 @OSSL_PARAM_set_octet_ptr(ptr noundef %162, ptr noundef %165, i64 noundef %169)
  %171 = icmp ne i32 %170, 0
  br i1 %171, label %173, label %172

172:                                              ; preds = %161
  call void @ERR_new()
  call void @ERR_set_debug(ptr noundef @.str, i32 noundef 283, ptr noundef @__func__.aes_get_ctx_params)
  call void (i32, i32, ptr, ...) @ERR_set_error(i32 noundef 57, i32 noundef 104, ptr noundef null)
  store i32 0, ptr %3, align 4
  store i32 1, ptr %10, align 4
  br label %174

173:                                              ; preds = %161, %149, %144
  store i32 1, ptr %3, align 4
  store i32 1, ptr %10, align 4
  br label %174

174:                                              ; preds = %173, %172, %143, %114, %100, %86, %73, %60, %47, %32
  call void @llvm.lifetime.end.p0(i64 8, ptr %7) #5
  call void @llvm.lifetime.end.p0(i64 8, ptr %6) #5
  %175 = load i32, ptr %3, align 4
  ret i32 %175
}