; Function Attrs: nounwind uwtable
define internal range(i32 0, 2) i32 @aes_get_ctx_params(ptr noundef %0, ptr noundef %1) #0 {
  %3 = tail call ptr @OSSL_PARAM_locate(ptr noundef %1, ptr noundef nonnull @.str.1) #4
  %.not = icmp eq ptr %3, null
  br i1 %.not, label %.critedge, label %4

4:                                                ; preds = %2
  %5 = getelementptr inbounds nuw i8, ptr %0, i64 464
  %6 = load ptr, ptr %5, align 8, !tbaa !16
  %7 = getelementptr inbounds nuw i8, ptr %6, i64 40
  %8 = load ptr, ptr %7, align 8, !tbaa !17
  %9 = tail call i32 %8(ptr noundef %0) #4
  %10 = sext i32 %9 to i64
  %11 = tail call i32 @OSSL_PARAM_set_size_t(ptr noundef nonnull %3, i64 noundef %10) #4
  %.not59.not = icmp eq i32 %11, 0
  br i1 %.not59.not, label %.sink.split, label %.critedge

.critedge:                                        ; preds = %4, %2
  %12 = tail call ptr @OSSL_PARAM_locate(ptr noundef %1, ptr noundef nonnull @.str.2) #4
  %.not60 = icmp eq ptr %12, null
  br i1 %.not60, label %17, label %13

13:                                               ; preds = %.critedge
  %14 = getelementptr inbounds nuw i8, ptr %0, i64 472
  %15 = load i32, ptr %14, align 8, !tbaa !20
  %16 = tail call i32 @OSSL_PARAM_set_uint(ptr noundef nonnull %12, i32 noundef %15) #4
  %.not61 = icmp eq i32 %16, 0
  br i1 %.not61, label %.sink.split, label %17

17:                                               ; preds = %13, %.critedge
  %18 = tail call ptr @OSSL_PARAM_locate(ptr noundef %1, ptr noundef nonnull @.str.3) #4
  %.not62 = icmp eq ptr %18, null
  br i1 %.not62, label %23, label %19

19:                                               ; preds = %17
  %20 = getelementptr inbounds nuw i8, ptr %0, i64 476
  %21 = load i32, ptr %20, align 4, !tbaa !21
  %22 = tail call i32 @OSSL_PARAM_set_uint(ptr noundef nonnull %18, i32 noundef %21) #4
  %.not63 = icmp eq i32 %22, 0
  br i1 %.not63, label %.sink.split, label %23

23:                                               ; preds = %19, %17
  %24 = tail call ptr @OSSL_PARAM_locate(ptr noundef %1, ptr noundef nonnull @.str.4) #4
  %.not64 = icmp eq ptr %24, null
  br i1 %.not64, label %29, label %25

25:                                               ; preds = %23
  %26 = getelementptr inbounds nuw i8, ptr %0, i64 488
  %27 = load i64, ptr %26, align 8, !tbaa !22
  %28 = tail call i32 @OSSL_PARAM_set_size_t(ptr noundef nonnull %24, i64 noundef %27) #4
  %.not65 = icmp eq i32 %28, 0
  br i1 %.not65, label %.sink.split, label %29

29:                                               ; preds = %25, %23
  %30 = tail call ptr @OSSL_PARAM_locate(ptr noundef %1, ptr noundef nonnull @.str.5) #4
  %.not66 = icmp eq ptr %30, null
  br i1 %.not66, label %35, label %31

31:                                               ; preds = %29
  %32 = getelementptr inbounds nuw i8, ptr %0, i64 496
  %33 = load i64, ptr %32, align 8, !tbaa !23
  %34 = tail call i32 @OSSL_PARAM_set_size_t(ptr noundef nonnull %30, i64 noundef %33) #4
  %.not67 = icmp eq i32 %34, 0
  br i1 %.not67, label %.sink.split, label %35

35:                                               ; preds = %31, %29
  %36 = tail call ptr @OSSL_PARAM_locate(ptr noundef %1, ptr noundef nonnull @.str.6) #4
  %.not68 = icmp eq ptr %36, null
  br i1 %.not68, label %41, label %37

37:                                               ; preds = %35
  %38 = getelementptr inbounds nuw i8, ptr %0, i64 72
  %39 = load i64, ptr %38, align 8, !tbaa !24
  %40 = tail call i32 @OSSL_PARAM_set_size_t(ptr noundef nonnull %36, i64 noundef %39) #4
  %.not69 = icmp eq i32 %40, 0
  br i1 %.not69, label %.sink.split, label %41

41:                                               ; preds = %37, %35
  %42 = tail call ptr @OSSL_PARAM_locate(ptr noundef %1, ptr noundef nonnull @.str.7) #4
  %.not70 = icmp eq ptr %42, null
  br i1 %.not70, label %47, label %43

43:                                               ; preds = %41
  %44 = getelementptr inbounds nuw i8, ptr %0, i64 80
  %45 = load i64, ptr %44, align 8, !tbaa !25
  %46 = tail call i32 @OSSL_PARAM_set_size_t(ptr noundef nonnull %42, i64 noundef %45) #4
  %.not71 = icmp eq i32 %46, 0
  br i1 %.not71, label %.sink.split, label %47

47:                                               ; preds = %43, %41
  %48 = tail call ptr @OSSL_PARAM_locate(ptr noundef %1, ptr noundef nonnull @.str.8) #4
  %.not72 = icmp eq ptr %48, null
  br i1 %.not72, label %56, label %49

49:                                               ; preds = %47
  %50 = getelementptr inbounds nuw i8, ptr %0, i64 80
  %51 = load i64, ptr %50, align 8, !tbaa !25
  %52 = tail call i32 @OSSL_PARAM_set_octet_string(ptr noundef nonnull %48, ptr noundef %0, i64 noundef %51) #4
  %.not73 = icmp eq i32 %52, 0
  br i1 %.not73, label %53, label %56

53:                                               ; preds = %49
  %54 = load i64, ptr %50, align 8, !tbaa !25
  %55 = tail call i32 @OSSL_PARAM_set_octet_ptr(ptr noundef nonnull %48, ptr noundef nonnull %0, i64 noundef %54) #4
  %.not74 = icmp eq i32 %55, 0
  br i1 %.not74, label %.sink.split, label %56

56:                                               ; preds = %53, %49, %47
  %57 = tail call ptr @OSSL_PARAM_locate(ptr noundef %1, ptr noundef nonnull @.str.9) #4
  %.not75 = icmp eq ptr %57, null
  br i1 %.not75, label %66, label %58

58:                                               ; preds = %56
  %59 = getelementptr inbounds nuw i8, ptr %0, i64 32
  %60 = getelementptr inbounds nuw i8, ptr %0, i64 80
  %61 = load i64, ptr %60, align 8, !tbaa !25
  %62 = tail call i32 @OSSL_PARAM_set_octet_string(ptr noundef nonnull %57, ptr noundef nonnull %59, i64 noundef %61) #4
  %.not76 = icmp eq i32 %62, 0
  br i1 %.not76, label %63, label %66

63:                                               ; preds = %58
  %64 = load i64, ptr %60, align 8, !tbaa !25
  %65 = tail call i32 @OSSL_PARAM_set_octet_ptr(ptr noundef nonnull %57, ptr noundef nonnull %59, i64 noundef %64) #4
  %.not77 = icmp eq i32 %65, 0
  br i1 %.not77, label %.sink.split, label %66

.sink.split:                                      ; preds = %63, %53, %43, %37, %31, %25, %19, %13, %4
  %.sink = phi i32 [ 233, %4 ], [ 240, %13 ], [ 246, %19 ], [ 252, %25 ], [ 259, %31 ], [ 264, %37 ], [ 269, %43 ], [ 276, %53 ], [ 283, %63 ]
  tail call void @ERR_new() #4
  tail call void @ERR_set_debug(ptr noundef nonnull @.str, i32 noundef %.sink, ptr noundef nonnull @__func__.aes_get_ctx_params) #4
  tail call void (i32, i32, ptr, ...) @ERR_set_error(i32 noundef 57, i32 noundef 104, ptr noundef null) #4
  br label %66

66:                                               ; preds = %.sink.split, %56, %58, %63
  %.1 = phi i32 [ 1, %63 ], [ 1, %58 ], [ 1, %56 ], [ 0, %.sink.split ]
  ret i32 %.1
}